; Function Attrs: mustprogress nofree norecurse nosync nounwind willreturn memory(argmem: read) uwtable
define noundef float @_ZN5faiss13fvec_Linf_refEPKfS1_m(ptr noundef readonly captures(none) %0, ptr noundef readonly captures(none) %1, i64 noundef %2) local_unnamed_addr #0 {
  %.not = icmp eq i64 %2, 0
  br i1 %.not, label %._crit_edge, label %.lr.ph

.lr.ph:                                           ; preds = %3, %.lr.ph
  %.010 = phi float [ %10, %.lr.ph ], [ 0.000000e+00, %3 ]
  %.089 = phi i64 [ %11, %.lr.ph ], [ 0, %3 ]
  %4 = getelementptr inbounds nuw float, ptr %0, i64 %.089
  %5 = load float, ptr %4, align 4, !tbaa !4
  %6 = getelementptr inbounds nuw float, ptr %1, i64 %.089
  %7 = load float, ptr %6, align 4, !tbaa !4
  %8 = fsub float %5, %7
  %9 = tail call float @llvm.fabs.f32(float %8)
  %10 = tail call float @llvm.maxnum.f32(float %.010, float %9)
  %11 = add nuw i64 %.089, 1
  %exitcond.not = icmp eq i64 %11, %2
  br i1 %exitcond.not, label %._crit_edge, label %.lr.ph, !llvm.loop !10

._crit_edge:                                      ; preds = %.lr.ph, %3
  %.0.lcssa = phi float [ 0.000000e+00, %3 ], [ %10, %.lr.ph ]
  ret float %.0.lcssa
}